; Function Attrs: nounwind uwtable
define hidden void @_ir_RETURN(ptr nocapture noundef %0, i32 noundef %1) local_unnamed_addr #0 {
  %.not = icmp eq i32 %1, 0
  br i1 %.not, label %10, label %3

3:                                                ; preds = %2
  %4 = load ptr, ptr %0, align 8
  %5 = sext i32 %1 to i64
  %6 = getelementptr inbounds %struct._ir_insn, ptr %4, i64 %5
  %7 = getelementptr inbounds i8, ptr %6, i64 1
  %8 = load i8, ptr %7, align 1
  %9 = zext i8 %8 to i32
  br label %10

10:                                               ; preds = %2, %3
  %11 = phi i32 [ %9, %3 ], [ 0, %2 ]
  %12 = getelementptr inbounds i8, ptr %0, i64 32
  %13 = load i32, ptr %12, align 8
  %14 = icmp eq i32 %13, -1
  br i1 %14, label %15, label %16

15:                                               ; preds = %10
  store i32 %11, ptr %12, align 8
  br label %16

16:                                               ; preds = %15, %10
  %17 = getelementptr inbounds i8, ptr %0, i64 248
  %18 = load i32, ptr %17, align 8
  %19 = load ptr, ptr %0, align 8
  %20 = getelementptr inbounds i8, ptr %19, i64 20
  %21 = load i32, ptr %20, align 4
  %22 = getelementptr inbounds i8, ptr %0, i64 8
  %23 = load i32, ptr %22, align 8
  %24 = getelementptr inbounds i8, ptr %0, i64 12
  %25 = load i32, ptr %24, align 4
  %.not.i.i.i = icmp slt i32 %23, %25
  br i1 %.not.i.i.i, label %ir_emit3.exit, label %26

26:                                               ; preds = %16
  %27 = getelementptr inbounds i8, ptr %0, i64 20
  %28 = load i32, ptr %27, align 4
  %29 = icmp slt i32 %25, 4096
  %30 = shl nsw i32 %25, 1
  %31 = icmp ult i32 %25, 8192
  %32 = add nuw nsw i32 %25, 4096
  %spec.select.i.i.i.i = select i1 %31, i32 8192, i32 %32
  %.sink.i.i.i.i = select i1 %29, i32 %30, i32 %spec.select.i.i.i.i
  store i32 %.sink.i.i.i.i, ptr %24, align 4
  %33 = sext i32 %28 to i64
  %34 = sub nsw i64 0, %33
  %35 = getelementptr inbounds %struct._ir_insn, ptr %19, i64 %34
  %36 = add nsw i32 %28, %.sink.i.i.i.i
  %37 = sext i32 %36 to i64
  %38 = shl nsw i64 %37, 4
  %39 = tail call ptr @_erealloc(ptr noundef %35, i64 noundef %38) #24
  %40 = load i32, ptr %27, align 4
  %41 = sext i32 %40 to i64
  %42 = getelementptr inbounds %struct._ir_insn, ptr %39, i64 %41
  store ptr %42, ptr %0, align 8
  br label %ir_emit3.exit

ir_emit3.exit:                                    ; preds = %16, %26
  %43 = phi ptr [ %19, %16 ], [ %42, %26 ]
  %44 = add nsw i32 %23, 1
  store i32 %44, ptr %22, align 8
  %45 = sext i32 %23 to i64
  %46 = getelementptr inbounds %struct._ir_insn, ptr %43, i64 %45
  store i32 102, ptr %46, align 8
  %47 = getelementptr inbounds i8, ptr %46, i64 4
  store i32 %18, ptr %47, align 4
  %48 = getelementptr inbounds i8, ptr %46, i64 8
  store i32 %1, ptr %48, align 8
  %49 = getelementptr inbounds i8, ptr %46, i64 12
  store i32 %21, ptr %49, align 4
  %50 = load ptr, ptr %0, align 8
  %51 = getelementptr inbounds i8, ptr %50, i64 20
  store i32 %23, ptr %51, align 4
  store i32 0, ptr %17, align 8
  ret void
}